******************************************************************************
                  TI ARM Linker Unix v18.12.5                  
******************************************************************************
>> Linked Tue Mar  3 16:03:44 2020

OUTPUT FILE NAME:   <Meesters.out>
ENTRY POINT SYMBOL: "_c_int00_noargs"  address: 00001599


MEMORY CONFIGURATION

         name            origin    length      used     unused   attr    fill
----------------------  --------  ---------  --------  --------  ----  --------
  MAIN                  00000000   00040000  000019d2  0003e62e  R  X
  INFO                  00200000   00004000  00000000  00004000  R  X
  SRAM_CODE             01000000   00010000  0000031c  0000fce4  RW X
  SRAM_DATA             20000000   00010000  0000031c  0000fce4  RW  


SEGMENT ALLOCATION MAP

run origin  load origin   length   init length attrs members
----------  ----------- ---------- ----------- ----- -------
00000000    00000000    000019d8   000019d8    r-x
  00000000    00000000    000000e4   000000e4    r-- .intvecs
  000000e4    000000e4    0000178e   0000178e    r-x .text
  00001874    00001874    00000128   00000128    r-- .const
  000019a0    000019a0    00000038   00000038    r-- .cinit
20000000    20000000    0000011c   00000000    rw-
  20000000    20000000    00000110   00000000    rw- .bss
  20000110    20000110    0000000c   00000000    rw- .data
2000fe00    2000fe00    00000200   00000000    rw-
  2000fe00    2000fe00    00000200   00000000    rw- .stack


SECTION ALLOCATION MAP

 output                                  attributes/
section   page    origin      length       input sections
--------  ----  ----------  ----------   ----------------
.intvecs   0    00000000    000000e4     
                  00000000    000000e4     startup_msp432p401r_ccs.obj (.intvecs:retain)

.text      0    000000e4    0000178e     
                  000000e4    000003c0     my_RFM9x.obj (.text:SX1276SetRxConfig)
                  000004a4    000002f4     my_RFM9x.obj (.text:SX1276SetTxConfig)
                  00000798    00000154     sx1276-board.obj (.text:SX1276SetRfTxPower)
                  000008ec    00000138     my_RFM9x.obj (.text:SX1276Send)
                  00000a24    00000136     rtsv7M4_T_le_v4SPD16_eabi.lib : fd_div_t2.asm.obj (.text)
                  00000b5a    00000002     startup_msp432p401r_ccs.obj (.text:Default_Handler)
                  00000b5c    00000124     main.obj (.text:main)
                  00000c80    000000fc     rtsv7M4_T_le_v4SPD16_eabi.lib : fd_mul_t2.asm.obj (.text)
                  00000d7c    000000c0     my_RFM9x.obj (.text:SX1276Init)
                  00000e3c    000000a8     my_RFM9x.obj (.text:RxChainCalibration)
                  00000ee4    000000a8     my_RFM9x.obj (.text:SX1276SetTx)
                  00000f8c    000000a0     my_RFM9x.obj (.text:SX1276SetModem)
                  0000102c    0000009c     rtsv7M4_T_le_v4SPD16_eabi.lib : memcpy_t2.asm.obj (.text)
                  000010c8    00000078     system_msp432p401r.obj (.text:SystemInit)
                  00001140    00000068     rtsv7M4_T_le_v4SPD16_eabi.lib : copy_decompress_lzss.c.obj (.text:decompress:lzss:__TI_decompress_lzss)
                  000011a8    00000064     my_RFM9x.obj (.text:GetFskBandwidthRegValue)
                  0000120c    00000060     my_RFM9x.obj (.text:SX1276WriteBuffer)
                  0000126c    00000058     my_timer.obj (.text:Delayms)
                  000012c4    00000048     my_RFM9x.obj (.text:SX1276SetChannel)
                  0000130c    00000048     rtsv7M4_T_le_v4SPD16_eabi.lib : fd_toi_t2.asm.obj (.text)
                  00001354    00000048     my_spi.obj (.text:spiRead_RFM)
                  0000139c    00000044     my_timer.obj (.text:TimerAInteruptInit)
                  000013e0    00000044     rtsv7M4_T_le_v4SPD16_eabi.lib : autoinit.c.obj (.text:__TI_auto_init_nobinit_nopinit:__TI_auto_init_nobinit_nopinit)
                  00001424    00000044                                   : fd_tou_t2.asm.obj (.text)
                  00001468    00000044     my_spi.obj (.text:spiWrite_RFM)
                  000014ac    00000040     msp432p4xx_driverlib.lib : gpio.o (.text:GPIO_setAsOutputPin)
                  000014ec    00000040                              : spi.o (.text:is_A_Module)
                  0000152c    00000038     my_spi.obj (.text:RFM_spi_read_write)
                  00001564    00000034     my_RFM9x.obj (.text:SX1276SetPublicNetwork)
                  00001598    00000034     rtsv7M4_T_le_v4SPD16_eabi.lib : boot_cortex_m.c.obj (.text:_c_int00_noargs:_c_int00_noargs)
                  000015cc    00000028     msp432p4xx_driverlib.lib : gpio.o (.text:GPIO_setOutputHighOnPin)
                  000015f4    00000028                              : gpio.o (.text:GPIO_setOutputLowOnPin)
                  0000161c    00000028                              : spi.o (.text:SPI_getInterruptStatus)
                  00001644    00000026                              : spi.o (.text:SPI_transmitData)
                  0000166a    00000002     main.obj (.text:OnRxError)
                  0000166c    00000024     main.obj (.text:PORT2_IRQHandler)
                  00001690    00000024     my_timer.obj (.text:TA1_0_IRQHandler)
                  000016b4    00000022     my_RFM9x.obj (.text:SX1276SetSleep)
                  000016d6    00000020     sx1276-board.obj (.text:SX1276Reset)
                  000016f6    00000020     my_RFM9x.obj (.text:SX1276SetOpMode)
                  00001716    00000020     rtsv7M4_T_le_v4SPD16_eabi.lib : u_tofd_t2.asm.obj (.text)
                  00001736    0000001c     msp432p4xx_driverlib.lib : spi.o (.text:SPI_receiveData)
                  00001752    0000001c     rtsv7M4_T_le_v4SPD16_eabi.lib : copy_zero_init.c.obj (.text:decompress:ZI:__TI_zero_init_nomemset:__TI_zero_init_nomemset)
                  0000176e    00000018     msp432p4xx_driverlib.lib : spi.o (.text:EUSCI_A_SPI_getInterruptStatus)
                  00001786    00000018                              : spi.o (.text:EUSCI_B_SPI_getInterruptStatus)
                  0000179e    00000016                              : spi.o (.text:EUSCI_A_SPI_transmitData)
                  000017b4    00000016                              : spi.o (.text:EUSCI_B_SPI_transmitData)
                  000017ca    00000016     main.obj (.text:OnRxDone)
                  000017e0    00000016     my_RFM9x.obj (.text:SX1276WriteFifo)
                  000017f6    00000002     main.obj (.text:OnRxTimeout)
                  000017f8    00000014     main.obj (.text:OnTxDone)
                  0000180c    00000014     my_RFM9x.obj (.text:SX1276SetStby)
                  00001820    00000010     msp432p4xx_driverlib.lib : spi.o (.text:EUSCI_A_SPI_receiveData)
                  00001830    00000010                              : spi.o (.text:EUSCI_B_SPI_receiveData)
                  00001840    0000000e     rtsv7M4_T_le_v4SPD16_eabi.lib : copy_decompress_none.c.obj (.text:decompress:none:__TI_decompress_none)
                  0000184e    0000000c     startup_msp432p401r_ccs.obj (.text:Reset_Handler)
                  0000185a    0000000c     sx1276-board.obj (.text:SX1276GetPaSelect)
                  00001866    00000004     rtsv7M4_T_le_v4SPD16_eabi.lib : pre_init.c.obj (.text:_system_pre_init)
                  0000186a    00000004                                   : exit.c.obj (.text:abort:abort)
                  0000186e    00000002     main.obj (.text:OnTxTimeout)
                  00001870    00000002     my_systick.obj (.text:SysTick_Handler)

.const     0    00001874    00000128     
                  00001874    000000b0     my_RFM9x.obj (.const:FskBandwidths)
                  00001924    00000030     msp432p4xx_driverlib.lib : gpio.o (.const:GPIO_PORT_TO_BASE)
                  00001954    00000030     my_RFM9x.obj (.const:RadioRegsInit)
                  00001984    00000018     my_timer.obj (.const:upConfig)

.cinit     0    000019a0    00000038     
                  000019a0    00000011     (.cinit..data.load) [load image, compression = lzss]
                  000019b1    00000003     --HOLE-- [fill = 0]
                  000019b4    0000000c     (__TI_handler_table)
                  000019c0    00000008     (.cinit..bss.load) [load image, compression = zero_init]
                  000019c8    00000010     (__TI_cinit_table)

.init_array 
*          0    00000000    00000000     UNINITIALIZED

.binit     0    00000000    00000000     

.bss       0    20000000    00000110     UNINITIALIZED
                  20000000    000000f0     (.common:SX1276)
                  200000f0    0000001c     main.obj (.bss:RadioEvents)
                  2000010c    00000004     my_RFM9x.obj (.bss)

.data      0    20000110    0000000c     UNINITIALIZED
                  20000110    00000006     main.obj (.data)
                  20000116    00000005     main.obj (.data:buffer)
                  2000011b    00000001     my_timer.obj (.data)

.stack     0    2000fe00    00000200     UNINITIALIZED
                  2000fe00    00000004     rtsv7M4_T_le_v4SPD16_eabi.lib : boot_cortex_m.c.obj (.stack)
                  2000fe04    000001fc     --HOLE--

MODULE SUMMARY

       Module                        code   ro data   rw data
       ------                        ----   -------   -------
    ./
       my_RFM9x.obj                  3144   224       488    
       main.obj                      376    0         78     
       sx1276-board.obj              384    0         0      
       my_timer.obj                  192    24        2      
       my_spi.obj                    196    0         0      
       system_msp432p401r.obj        120    0         0      
       my_systick.obj                2      0         0      
    +--+-----------------------------+------+---------+---------+
       Total:                        4414   248       568    
                                                             
    ./ccs/
       startup_msp432p401r_ccs.obj   14     228       0      
    +--+-----------------------------+------+---------+---------+
       Total:                        14     228       0      
                                                             
    /home/nicholas/ti/ccs930/ccs/tools/compiler/ti-cgt-arm_18.12.5.LTS/lib/rtsv7M4_T_le_v4SPD16_eabi.lib
       fd_div_t2.asm.obj             310    0         0      
       fd_mul_t2.asm.obj             252    0         0      
       memcpy_t2.asm.obj             156    0         0      
       copy_decompress_lzss.c.obj    104    0         0      
       fd_toi_t2.asm.obj             72     0         0      
       autoinit.c.obj                68     0         0      
       fd_tou_t2.asm.obj             68     0         0      
       boot_cortex_m.c.obj           52     0         0      
       u_tofd_t2.asm.obj             32     0         0      
       copy_zero_init.c.obj          28     0         0      
       copy_decompress_none.c.obj    14     0         0      
       exit.c.obj                    4      0         0      
       pre_init.c.obj                4      0         0      
    +--+-----------------------------+------+---------+---------+
       Total:                        1164   0         0      
                                                             
    /home/nicholas/ti/ti/simplelink_msp432p4_sdk_3_40_01_02/source/ti/devices/msp432p4xx/driverlib/ccs/msp432p4xx_driverlib.lib
       spi.o                         294    0         0      
       gpio.o                        144    48        0      
    +--+-----------------------------+------+---------+---------+
       Total:                        438    48        0      
                                                             
       Stack:                        0      0         1024   
       Linker Generated:             0      53        0      
    +--+-----------------------------+------+---------+---------+
       Grand Total:                  6030   577       1592   


LINKER GENERATED COPY TABLES

__TI_cinit_table @ 000019c8 records: 2, size/record: 8, table size: 16
	.data: load addr=000019a0, load size=00000011 bytes, run addr=20000110, run size=0000000c bytes, compression=lzss
	.bss: load addr=000019c0, load size=00000008 bytes, run addr=20000000, run size=00000110 bytes, compression=zero_init


LINKER GENERATED HANDLER TABLE

__TI_handler_table @ 000019b4 records: 3, size/record: 4, table size: 12
	index: 0, handler: __TI_decompress_lzss
	index: 1, handler: __TI_decompress_none
	index: 2, handler: __TI_zero_init


GLOBAL SYMBOLS: SORTED ALPHABETICALLY BY Name 

address   name                          
-------   ----                          
00000b5b  ADC14_IRQHandler              
00000b5b  AES256_IRQHandler             
20000112  BufferSize                    
00000b5b  BusFault_Handler              
0000186b  C$$EXIT                       
00000b5b  COMP_E0_IRQHandler            
00000b5b  COMP_E1_IRQHandler            
00000b5b  CS_IRQHandler                 
00000b5b  DMA_ERR_IRQHandler            
00000b5b  DMA_INT0_IRQHandler           
00000b5b  DMA_INT1_IRQHandler           
00000b5b  DMA_INT2_IRQHandler           
00000b5b  DMA_INT3_IRQHandler           
00000b5b  DebugMon_Handler              
00000b5b  Default_Handler               
0000126d  Delayms                       
00000b5b  EUSCIA0_IRQHandler            
00000b5b  EUSCIA1_IRQHandler            
00000b5b  EUSCIA2_IRQHandler            
00000b5b  EUSCIA3_IRQHandler            
00000b5b  EUSCIB0_IRQHandler            
00000b5b  EUSCIB1_IRQHandler            
00000b5b  EUSCIB2_IRQHandler            
00000b5b  EUSCIB3_IRQHandler            
0000176f  EUSCI_A_SPI_getInterruptStatus
00001821  EUSCI_A_SPI_receiveData       
0000179f  EUSCI_A_SPI_transmitData      
00001787  EUSCI_B_SPI_getInterruptStatus
00001831  EUSCI_B_SPI_receiveData       
000017b5  EUSCI_B_SPI_transmitData      
00000b5b  FLCTL_IRQHandler              
00000b5b  FPU_IRQHandler                
00001874  FskBandwidths                 
000014ad  GPIO_setAsOutputPin           
000015cd  GPIO_setOutputHighOnPin       
000015f5  GPIO_setOutputLowOnPin        
000011a9  GetFskBandwidthRegValue       
00000b5b  HardFault_Handler             
00000b5b  MemManage_Handler             
00000b5b  NMI_Handler                   
000017cb  OnRxDone                      
0000166b  OnRxError                     
000017f7  OnRxTimeout                   
000017f9  OnTxDone                      
0000186f  OnTxTimeout                   
00000b5b  PCM_IRQHandler                
00000b5b  PORT1_IRQHandler              
0000166d  PORT2_IRQHandler              
0000166d  PORT2_IRQHandler              
00000b5b  PORT3_IRQHandler              
00000b5b  PORT4_IRQHandler              
00000b5b  PORT5_IRQHandler              
00000b5b  PORT6_IRQHandler              
00000b5b  PSS_IRQHandler                
00000b5b  PendSV_Handler                
0000152d  RFM_spi_read_write            
00000b5b  RTC_C_IRQHandler              
00001954  RadioRegsInit                 
0000184f  Reset_Handler                 
20000114  RssiValue                     
00000e3d  RxChainCalibration            
0000161d  SPI_getInterruptStatus        
00001737  SPI_receiveData               
00001645  SPI_transmitData              
00000b5b  SVC_Handler                   
20000000  SX1276                        
00000d7d  SX1276Init                    
000016d7  SX1276Reset                   
000008ed  SX1276Send                    
000012c5  SX1276SetChannel              
00000f8d  SX1276SetModem                
000016f7  SX1276SetOpMode               
00001565  SX1276SetPublicNetwork        
00000799  SX1276SetRfTxPower            
000000e5  SX1276SetRxConfig             
000016b5  SX1276SetSleep                
0000180d  SX1276SetStby                 
00000ee5  SX1276SetTx                   
000004a5  SX1276SetTxConfig             
0000120d  SX1276WriteBuffer             
000017e1  SX1276WriteFifo               
20000115  SnrValue                      
20000110  State                         
00001871  SysTick_Handler               
00001871  SysTick_Handler               
000010c9  SystemInit                    
00000b5b  T32_INT1_IRQHandler           
00000b5b  T32_INT2_IRQHandler           
00000b5b  T32_INTC_IRQHandler           
00000b5b  TA0_0_IRQHandler              
00000b5b  TA0_N_IRQHandler              
00001691  TA1_0_IRQHandler              
00001691  TA1_0_IRQHandler              
00000b5b  TA1_N_IRQHandler              
00000b5b  TA2_0_IRQHandler              
00000b5b  TA2_N_IRQHandler              
00000b5b  TA3_0_IRQHandler              
00000b5b  TA3_N_IRQHandler              
0000139d  TimerAInteruptInit            
2000011b  TimerInteruptFlag             
00000b5b  UsageFault_Handler            
4000480c  WDTCTL_SYM                    
00000b5b  WDT_A_IRQHandler              
20010000  __STACK_END                   
00000200  __STACK_SIZE                  
000019c8  __TI_CINIT_Base               
000019d8  __TI_CINIT_Limit              
000019b4  __TI_Handler_Table_Base       
000019c0  __TI_Handler_Table_Limit      
000013e1  __TI_auto_init_nobinit_nopinit
00001141  __TI_decompress_lzss          
00001841  __TI_decompress_none          
ffffffff  __TI_pprof_out_hndl           
ffffffff  __TI_prof_data_size           
ffffffff  __TI_prof_data_start          
00000000  __TI_static_base__            
00001753  __TI_zero_init_nomemset       
0000130d  __aeabi_d2iz                  
00001425  __aeabi_d2uiz                 
00000a25  __aeabi_ddiv                  
00000c81  __aeabi_dmul                  
0000102d  __aeabi_memcpy                
0000102d  __aeabi_memcpy4               
0000102d  __aeabi_memcpy8               
00001717  __aeabi_ui2d                  
ffffffff  __binit__                     
ffffffff  __c_args__                    
UNDEFED   __mpu_init                    
2000fe00  __stack                       
00001599  _c_int00_noargs               
UNDEFED   _system_post_cinit            
00001867  _system_pre_init              
0000186b  abort                         
ffffffff  binit                         
20000116  buffer                        
00000000  interruptVectors              
00000b5d  main                          
0000102d  memcpy                        
00001355  spiRead_RFM                   
00001469  spiWrite_RFM                  
00001984  upConfig                      


GLOBAL SYMBOLS: SORTED BY Symbol Address 

address   name                          
-------   ----                          
00000000  __TI_static_base__            
00000000  interruptVectors              
000000e5  SX1276SetRxConfig             
00000200  __STACK_SIZE                  
000004a5  SX1276SetTxConfig             
00000799  SX1276SetRfTxPower            
000008ed  SX1276Send                    
00000a25  __aeabi_ddiv                  
00000b5b  ADC14_IRQHandler              
00000b5b  AES256_IRQHandler             
00000b5b  BusFault_Handler              
00000b5b  COMP_E0_IRQHandler            
00000b5b  COMP_E1_IRQHandler            
00000b5b  CS_IRQHandler                 
00000b5b  DMA_ERR_IRQHandler            
00000b5b  DMA_INT0_IRQHandler           
00000b5b  DMA_INT1_IRQHandler           
00000b5b  DMA_INT2_IRQHandler           
00000b5b  DMA_INT3_IRQHandler           
00000b5b  DebugMon_Handler              
00000b5b  Default_Handler               
00000b5b  EUSCIA0_IRQHandler            
00000b5b  EUSCIA1_IRQHandler            
00000b5b  EUSCIA2_IRQHandler            
00000b5b  EUSCIA3_IRQHandler            
00000b5b  EUSCIB0_IRQHandler            
00000b5b  EUSCIB1_IRQHandler            
00000b5b  EUSCIB2_IRQHandler            
00000b5b  EUSCIB3_IRQHandler            
00000b5b  FLCTL_IRQHandler              
00000b5b  FPU_IRQHandler                
00000b5b  HardFault_Handler             
00000b5b  MemManage_Handler             
00000b5b  NMI_Handler                   
00000b5b  PCM_IRQHandler                
00000b5b  PORT1_IRQHandler              
00000b5b  PORT3_IRQHandler              
00000b5b  PORT4_IRQHandler              
00000b5b  PORT5_IRQHandler              
00000b5b  PORT6_IRQHandler              
00000b5b  PSS_IRQHandler                
00000b5b  PendSV_Handler                
00000b5b  RTC_C_IRQHandler              
00000b5b  SVC_Handler                   
00000b5b  T32_INT1_IRQHandler           
00000b5b  T32_INT2_IRQHandler           
00000b5b  T32_INTC_IRQHandler           
00000b5b  TA0_0_IRQHandler              
00000b5b  TA0_N_IRQHandler              
00000b5b  TA1_N_IRQHandler              
00000b5b  TA2_0_IRQHandler              
00000b5b  TA2_N_IRQHandler              
00000b5b  TA3_0_IRQHandler              
00000b5b  TA3_N_IRQHandler              
00000b5b  UsageFault_Handler            
00000b5b  WDT_A_IRQHandler              
00000b5d  main                          
00000c81  __aeabi_dmul                  
00000d7d  SX1276Init                    
00000e3d  RxChainCalibration            
00000ee5  SX1276SetTx                   
00000f8d  SX1276SetModem                
0000102d  __aeabi_memcpy                
0000102d  __aeabi_memcpy4               
0000102d  __aeabi_memcpy8               
0000102d  memcpy                        
000010c9  SystemInit                    
00001141  __TI_decompress_lzss          
000011a9  GetFskBandwidthRegValue       
0000120d  SX1276WriteBuffer             
0000126d  Delayms                       
000012c5  SX1276SetChannel              
0000130d  __aeabi_d2iz                  
00001355  spiRead_RFM                   
0000139d  TimerAInteruptInit            
000013e1  __TI_auto_init_nobinit_nopinit
00001425  __aeabi_d2uiz                 
00001469  spiWrite_RFM                  
000014ad  GPIO_setAsOutputPin           
0000152d  RFM_spi_read_write            
00001565  SX1276SetPublicNetwork        
00001599  _c_int00_noargs               
000015cd  GPIO_setOutputHighOnPin       
000015f5  GPIO_setOutputLowOnPin        
0000161d  SPI_getInterruptStatus        
00001645  SPI_transmitData              
0000166b  OnRxError                     
0000166d  PORT2_IRQHandler              
0000166d  PORT2_IRQHandler              
00001691  TA1_0_IRQHandler              
00001691  TA1_0_IRQHandler              
000016b5  SX1276SetSleep                
000016d7  SX1276Reset                   
000016f7  SX1276SetOpMode               
00001717  __aeabi_ui2d                  
00001737  SPI_receiveData               
00001753  __TI_zero_init_nomemset       
0000176f  EUSCI_A_SPI_getInterruptStatus
00001787  EUSCI_B_SPI_getInterruptStatus
0000179f  EUSCI_A_SPI_transmitData      
000017b5  EUSCI_B_SPI_transmitData      
000017cb  OnRxDone                      
000017e1  SX1276WriteFifo               
000017f7  OnRxTimeout                   
000017f9  OnTxDone                      
0000180d  SX1276SetStby                 
00001821  EUSCI_A_SPI_receiveData       
00001831  EUSCI_B_SPI_receiveData       
00001841  __TI_decompress_none          
0000184f  Reset_Handler                 
00001867  _system_pre_init              
0000186b  C$$EXIT                       
0000186b  abort                         
0000186f  OnTxTimeout                   
00001871  SysTick_Handler               
00001871  SysTick_Handler               
00001874  FskBandwidths                 
00001954  RadioRegsInit                 
00001984  upConfig                      
000019b4  __TI_Handler_Table_Base       
000019c0  __TI_Handler_Table_Limit      
000019c8  __TI_CINIT_Base               
000019d8  __TI_CINIT_Limit              
20000000  SX1276                        
20000110  State                         
20000112  BufferSize                    
20000114  RssiValue                     
20000115  SnrValue                      
20000116  buffer                        
2000011b  TimerInteruptFlag             
2000fe00  __stack                       
20010000  __STACK_END                   
4000480c  WDTCTL_SYM                    
ffffffff  __TI_pprof_out_hndl           
ffffffff  __TI_prof_data_size           
ffffffff  __TI_prof_data_start          
ffffffff  __binit__                     
ffffffff  __c_args__                    
ffffffff  binit                         
UNDEFED   __mpu_init                    
UNDEFED   _system_post_cinit            

[141 symbols]
